target datalayout = "e-m:e-p270:32:32-p271:32:32-p272:64:64-i64:64-i128:128-f80:128-n8:16:32:64-S128"
target triple = "x86_64-pc-linux-gnu"

%struct._AwtGraphicsConfigData = type { i32, i64, %struct.XVisualInfo, i32, ptr, ptr, ptr, i64, i32, i32, ptr, i32, ptr, ptr, i32, %struct.XRenderPictFormat }
%struct.XVisualInfo = type { ptr, i64, i32, i32, i32, i64, i64, i64, i32, i32 }
%struct.XRenderPictFormat = type { i64, i32, i32, %struct.XRenderDirectFormat, i64 }
%struct.XRenderDirectFormat = type { i16, i16, i16, i16, i16, i16, i16, i16 }
%struct._ColorData = type { ptr, i32, ptr, ptr, ptr, ptr, ptr, ptr, ptr, ptr, i32, i32 }

; Function Attrs: nounwind uwtable
define hidden i32 @awt_color_matchGS(i32 noundef %0, i32 noundef %1, i32 noundef %2, ptr noundef %3) #0 {
  %5 = alloca i32, align 4
  %6 = alloca i32, align 4
  %7 = alloca i32, align 4
  %8 = alloca ptr, align 8
  store i32 %0, ptr %5, align 4
  store i32 %1, ptr %6, align 4
  store i32 %2, ptr %7, align 4
  store ptr %3, ptr %8, align 8
  %9 = load i32, ptr %5, align 4
  %10 = icmp slt i32 %9, 0
  br i1 %10, label %11, label %12

11:                                               ; preds = %4
  br label %20

12:                                               ; preds = %4
  %13 = load i32, ptr %5, align 4
  %14 = icmp sgt i32 %13, 255
  br i1 %14, label %15, label %16

15:                                               ; preds = %12
  br label %18

16:                                               ; preds = %12
  %17 = load i32, ptr %5, align 4
  br label %18

18:                                               ; preds = %16, %15
  %19 = phi i32 [ 255, %15 ], [ %17, %16 ]
  br label %20

20:                                               ; preds = %18, %11
  %21 = phi i32 [ 0, %11 ], [ %19, %18 ]
  store i32 %21, ptr %5, align 4
  %22 = load i32, ptr %6, align 4
  %23 = icmp slt i32 %22, 0
  br i1 %23, label %24, label %25

24:                                               ; preds = %20
  br label %33

25:                                               ; preds = %20
  %26 = load i32, ptr %6, align 4
  %27 = icmp sgt i32 %26, 255
  br i1 %27, label %28, label %29

28:                                               ; preds = %25
  br label %31

29:                                               ; preds = %25
  %30 = load i32, ptr %6, align 4
  br label %31

31:                                               ; preds = %29, %28
  %32 = phi i32 [ 255, %28 ], [ %30, %29 ]
  br label %33

33:                                               ; preds = %31, %24
  %34 = phi i32 [ 0, %24 ], [ %32, %31 ]
  store i32 %34, ptr %6, align 4
  %35 = load i32, ptr %7, align 4
  %36 = icmp slt i32 %35, 0
  br i1 %36, label %37, label %38

37:                                               ; preds = %33
  br label %46

38:                                               ; preds = %33
  %39 = load i32, ptr %7, align 4
  %40 = icmp sgt i32 %39, 255
  br i1 %40, label %41, label %42

41:                                               ; preds = %38
  br label %44

42:                                               ; preds = %38
  %43 = load i32, ptr %7, align 4
  br label %44

44:                                               ; preds = %42, %41
  %45 = phi i32 [ 255, %41 ], [ %43, %42 ]
  br label %46

46:                                               ; preds = %44, %37
  %47 = phi i32 [ 0, %37 ], [ %45, %44 ]
  store i32 %47, ptr %7, align 4
  %48 = load ptr, ptr %8, align 8
  %49 = getelementptr inbounds %struct._AwtGraphicsConfigData, ptr %48, i32 0, i32 12
  %50 = load ptr, ptr %49, align 8
  %51 = getelementptr inbounds %struct._ColorData, ptr %50, i32 0, i32 4
  %52 = load ptr, ptr %51, align 8
  %53 = load i32, ptr %5, align 4
  %54 = sitofp i32 %53 to double
  %55 = load i32, ptr %6, align 4
  %56 = sitofp i32 %55 to double
  %57 = fmul double 5.870000e-01, %56
  %58 = call double @llvm.fmuladd.f64(double 2.990000e-01, double %54, double %57)
  %59 = load i32, ptr %7, align 4
  %60 = sitofp i32 %59 to double
  %61 = call double @llvm.fmuladd.f64(double 1.140000e-01, double %60, double %58)
  %62 = fadd double %61, 5.000000e-01
  %63 = fptosi double %62 to i32
  %64 = sext i32 %63 to i64
  %65 = getelementptr inbounds i8, ptr %52, i64 %64
  %66 = load i8, ptr %65, align 1
  %67 = zext i8 %66 to i32
  ret i32 %67
}