; Function Attrs: mustprogress nofree norecurse nosync nounwind willreturn memory(read, inaccessiblemem: none) uwtable
define hidden range(i32 0, 256) i32 @awt_color_matchGS(i32 noundef %0, i32 noundef %1, i32 noundef %2, ptr nocapture noundef readonly %3) #0 {
  %5 = tail call i32 @llvm.smin.i32(i32 %0, i32 255)
  %6 = tail call i32 @llvm.smax.i32(i32 %5, i32 0)
  %7 = tail call i32 @llvm.smin.i32(i32 %1, i32 255)
  %8 = tail call i32 @llvm.smax.i32(i32 %7, i32 0)
  %9 = tail call i32 @llvm.smin.i32(i32 %2, i32 255)
  %10 = tail call i32 @llvm.smax.i32(i32 %9, i32 0)
  %11 = getelementptr inbounds i8, ptr %3, i64 144
  %12 = load ptr, ptr %11, align 8
  %13 = getelementptr inbounds i8, ptr %12, i64 32
  %14 = load ptr, ptr %13, align 8
  %15 = uitofp nneg i32 %6 to double
  %16 = uitofp nneg i32 %8 to double
  %17 = fmul double %16, 5.870000e-01
  %18 = tail call double @llvm.fmuladd.f64(double %15, double 2.990000e-01, double %17)
  %19 = uitofp nneg i32 %10 to double
  %20 = tail call double @llvm.fmuladd.f64(double %19, double 1.140000e-01, double %18)
  %21 = fadd double %20, 5.000000e-01
  %22 = fptosi double %21 to i32
  %23 = sext i32 %22 to i64
  %24 = getelementptr inbounds i8, ptr %14, i64 %23
  %25 = load i8, ptr %24, align 1
  %26 = zext i8 %25 to i32
  ret i32 %26
}